target datalayout = "e-m:e-p270:32:32-p271:32:32-p272:64:64-i64:64-i128:128-f80:128-n8:16:32:64-S128"
target triple = "x86_64-unknown-linux-gnu"

%"class.icu_75::UObject" = type { ptr }
%"class.icu_75::FixedDecimal" = type { %"class.icu_75::IFixedDecimal", %"class.icu_75::UObject", double, i32, i64, i64, i64, i32, i8, i8, i8, i8 }
%"class.icu_75::IFixedDecimal" = type { ptr }

; Function Attrs: mustprogress nounwind uwtable
define linkonce_odr noundef double @_ZSt3powIdiEN9__gnu_cxx9__promoteIDTplcvNS1_IT_Xsr3std12__is_integerIS2_EE7__valueEE6__typeELi0EcvNS1_IT0_Xsr3std12__is_integerIS5_EE7__valueEE6__typeELi0EEXsr3std12__is_integerIS8_EE7__valueEE6__typeES2_S5_(double noundef %__x, i32 noundef %__y) #0 comdat {
entry:
  %__x.addr = alloca double, align 8
  %__y.addr = alloca i32, align 4
  store double %__x, ptr %__x.addr, align 8
  store i32 %__y, ptr %__y.addr, align 4
  %0 = load double, ptr %__x.addr, align 8
  %1 = load i32, ptr %__y.addr, align 4
  %conv = sitofp i32 %1 to double
  %call = call double @pow(double noundef %0, double noundef %conv) #13
  ret double %call
}

; Function Attrs: mustprogress uwtable
define noundef i64 @_ZNK6icu_7512FixedDecimal9longValueEv(ptr noundef nonnull align 8 dereferenceable(64) %this) #1 align 2 {
entry:
  %retval = alloca i64, align 8
  %this.addr = alloca ptr, align 8
  store ptr %this, ptr %this.addr, align 8
  %this1 = load ptr, ptr %this.addr, align 8
  %exponent = getelementptr inbounds %"class.icu_75::FixedDecimal", ptr %this1, i32 0, i32 7
  %0 = load i32, ptr %exponent, align 8
  %cmp = icmp eq i32 %0, 0
  br i1 %cmp, label %if.then, label %if.else

if.then:                                          ; preds = %entry
  %intValue = getelementptr inbounds %"class.icu_75::FixedDecimal", ptr %this1, i32 0, i32 6
  %1 = load i64, ptr %intValue, align 8
  store i64 %1, ptr %retval, align 8
  br label %return

if.else:                                          ; preds = %entry
  %exponent2 = getelementptr inbounds %"class.icu_75::FixedDecimal", ptr %this1, i32 0, i32 7
  %2 = load i32, ptr %exponent2, align 8
  %call = call noundef double @_ZSt3powIdiEN9__gnu_cxx9__promoteIDTplcvNS1_IT_Xsr3std12__is_integerIS2_EE7__valueEE6__typeELi0EcvNS1_IT0_Xsr3std12__is_integerIS5_EE7__valueEE6__typeELi0EEXsr3std12__is_integerIS8_EE7__valueEE6__typeES2_S5_(double noundef 1.000000e+01, i32 noundef %2)
  %intValue3 = getelementptr inbounds %"class.icu_75::FixedDecimal", ptr %this1, i32 0, i32 6
  %3 = load i64, ptr %intValue3, align 8
  %conv = sitofp i64 %3 to double
  %mul = fmul double %call, %conv
  %conv4 = fptosi double %mul to i64
  store i64 %conv4, ptr %retval, align 8
  br label %return

return:                                           ; preds = %if.else, %if.then
  %4 = load i64, ptr %retval, align 8
  ret i64 %4
}