; Function Attrs: mustprogress uwtable
define noundef i64 @_ZNK6icu_7512FixedDecimal9longValueEv(ptr nocapture noundef nonnull readonly align 8 dereferenceable(64) %this) local_unnamed_addr #1 align 2 {
entry:
  %exponent = getelementptr inbounds i8, ptr %this, i64 56
  %0 = load i32, ptr %exponent, align 8
  %cmp = icmp eq i32 %0, 0
  br i1 %cmp, label %if.then, label %if.else

if.then:                                          ; preds = %entry
  %intValue = getelementptr inbounds i8, ptr %this, i64 48
  %1 = load i64, ptr %intValue, align 8
  br label %return

if.else:                                          ; preds = %entry
  %conv.i = sitofp i32 %0 to double
  %__exp10 = tail call double @__exp10(double %conv.i)
  %intValue3 = getelementptr inbounds i8, ptr %this, i64 48
  %2 = load i64, ptr %intValue3, align 8
  %conv = sitofp i64 %2 to double
  %mul = fmul double %__exp10, %conv
  %conv4 = fptosi double %mul to i64
  br label %return

return:                                           ; preds = %if.else, %if.then
  %retval.0 = phi i64 [ %1, %if.then ], [ %conv4, %if.else ]
  ret i64 %retval.0
}